target datalayout = "e-m:e-p270:32:32-p271:32:32-p272:64:64-i64:64-i128:128-f80:128-n8:16:32:64-S128"
target triple = "x86_64-pc-linux-gnu"

%struct.conf_st = type { ptr }
%struct.conf_value_st = type { ptr, ptr, ptr }

; Function Attrs: nounwind uwtable
define hidden ptr @NCONF_get_string(ptr noundef %0, ptr noundef %1, ptr noundef %2) #0 {
  %4 = alloca ptr, align 8
  %5 = alloca ptr, align 8
  %6 = alloca ptr, align 8
  %7 = alloca ptr, align 8
  %8 = alloca %struct.conf_value_st, align 8
  %9 = alloca ptr, align 8
  %10 = alloca i32, align 4
  store ptr %0, ptr %5, align 8, !tbaa !10
  store ptr %1, ptr %6, align 8, !tbaa !23
  store ptr %2, ptr %7, align 8, !tbaa !23
  call void @llvm.lifetime.start.p0(i64 24, ptr %8) #8
  call void @llvm.lifetime.start.p0(i64 8, ptr %9) #8
  call void @llvm.memset.p0.i64(ptr align 8 %8, i8 0, i64 24, i1 false)
  %11 = load ptr, ptr %6, align 8, !tbaa !23
  %12 = getelementptr inbounds nuw %struct.conf_value_st, ptr %8, i32 0, i32 0
  store ptr %11, ptr %12, align 8, !tbaa !17
  %13 = load ptr, ptr %7, align 8, !tbaa !23
  %14 = getelementptr inbounds nuw %struct.conf_value_st, ptr %8, i32 0, i32 1
  store ptr %13, ptr %14, align 8, !tbaa !20
  %15 = load ptr, ptr %5, align 8, !tbaa !10
  %16 = getelementptr inbounds nuw %struct.conf_st, ptr %15, i32 0, i32 0
  %17 = load ptr, ptr %16, align 8, !tbaa !12
  %18 = call ptr @lh_retrieve(ptr noundef %17, ptr noundef %8)
  store ptr %18, ptr %9, align 8, !tbaa !15
  %19 = load ptr, ptr %9, align 8, !tbaa !15
  %20 = icmp eq ptr %19, null
  br i1 %20, label %21, label %22

21:                                               ; preds = %3
  store ptr null, ptr %4, align 8
  store i32 1, ptr %10, align 4
  br label %26

22:                                               ; preds = %3
  %23 = load ptr, ptr %9, align 8, !tbaa !15
  %24 = getelementptr inbounds nuw %struct.conf_value_st, ptr %23, i32 0, i32 2
  %25 = load ptr, ptr %24, align 8, !tbaa !24
  store ptr %25, ptr %4, align 8
  store i32 1, ptr %10, align 4
  br label %26

26:                                               ; preds = %22, %21
  call void @llvm.lifetime.end.p0(i64 8, ptr %9) #8
  call void @llvm.lifetime.end.p0(i64 24, ptr %8) #8
  %27 = load ptr, ptr %4, align 8
  ret ptr %27
}