; Function Attrs: nounwind uwtable
define hidden ptr @NCONF_get_string(ptr noundef readonly captures(none) %0, ptr noundef %1, ptr noundef %2) local_unnamed_addr #0 {
  %4 = alloca %struct.conf_value_st, align 8
  call void @llvm.lifetime.start.p0(i64 24, ptr nonnull %4) #12
  %5 = getelementptr inbounds nuw i8, ptr %4, i64 16
  store i64 0, ptr %5, align 8
  store ptr %1, ptr %4, align 8, !tbaa !12
  %6 = getelementptr inbounds nuw i8, ptr %4, i64 8
  store ptr %2, ptr %6, align 8, !tbaa !15
  %7 = load ptr, ptr %0, align 8, !tbaa !6
  %8 = call ptr @lh_retrieve(ptr noundef %7, ptr noundef nonnull %4) #12
  %9 = icmp eq ptr %8, null
  br i1 %9, label %13, label %10

10:                                               ; preds = %3
  %11 = getelementptr inbounds nuw i8, ptr %8, i64 16
  %12 = load ptr, ptr %11, align 8, !tbaa !16
  br label %13

13:                                               ; preds = %3, %10
  %.0 = phi ptr [ %12, %10 ], [ null, %3 ]
  call void @llvm.lifetime.end.p0(i64 24, ptr nonnull %4) #12
  ret ptr %.0
}